target datalayout = "e-m:e-p270:32:32-p271:32:32-p272:64:64-i64:64-i128:128-f80:128-n8:16:32:64-S128"
target triple = "x86_64-pc-linux-gnu"

%struct.bio_st = type { ptr, ptr, ptr, i32, i32, i32, i32, i32, i32, ptr, ptr, i64, i64 }

; Function Attrs: nounwind uwtable
define hidden ptr @BIO_pop(ptr noundef %0) #0 {
  %2 = alloca ptr, align 8
  %3 = alloca ptr, align 8
  %4 = alloca ptr, align 8
  %5 = alloca i32, align 4
  store ptr %0, ptr %3, align 8, !tbaa !11
  call void @llvm.lifetime.start.p0(i64 8, ptr %4) #9
  %6 = load ptr, ptr %3, align 8, !tbaa !11
  %7 = icmp eq ptr %6, null
  br i1 %7, label %8, label %9

8:                                                ; preds = %1
  store ptr null, ptr %2, align 8
  store i32 1, ptr %5, align 4
  br label %16

9:                                                ; preds = %1
  %10 = load ptr, ptr %3, align 8, !tbaa !11
  %11 = getelementptr inbounds nuw %struct.bio_st, ptr %10, i32 0, i32 10
  %12 = load ptr, ptr %11, align 8, !tbaa !27
  store ptr %12, ptr %4, align 8, !tbaa !11
  %13 = load ptr, ptr %3, align 8, !tbaa !11
  %14 = getelementptr inbounds nuw %struct.bio_st, ptr %13, i32 0, i32 10
  store ptr null, ptr %14, align 8, !tbaa !27
  %15 = load ptr, ptr %4, align 8, !tbaa !11
  store ptr %15, ptr %2, align 8
  store i32 1, ptr %5, align 4
  br label %16

16:                                               ; preds = %9, %8
  call void @llvm.lifetime.end.p0(i64 8, ptr %4) #9
  %17 = load ptr, ptr %2, align 8
  ret ptr %17
}